(lp0
F0.18867924528301885
aF0.17964071856287425
aF0.13548387096774192
aF0.13975155279503104
aF0.17880794701986752
aF0.17220543806646527
aF0.17168674698795183
aF0.18327974276527334
aF0.1386138613861386
aF0.2259036144578313
aF0.08910891089108912
aF0.2696629213483146
aF0.2037037037037037
aF0.27118644067796605
aF0.10543130990415336
aF0.12883435582822086
aF0.22865853658536586
aF0.18072289156626503
aF0.2169811320754717
aF0.08970099667774087
aF0.1188118811881188
aF0.23999999999999996
aF0.2188449848024316
aF0.1875
aF0.2029411764705882
a.