(lp0
F0.6560467055879899
aF0.6560477849676456
aF0.6518298714144412
aF0.6646321346090398
aF0.6566753078418665
aF0.6562653966168501
aF0.6590720106436054
aF0.6599801061007957
aF0.6511016113120685
aF0.6563265306122449
aF0.6565245688252521
aF0.6542210474145053
aF0.6530715005035246
aF0.6480437665782492
aF0.6621599609056851
aF0.6495698750202891
aF0.6484584450402143
aF0.6512170723574525
aF0.6415031592949784
aF0.6460162332284247
aF0.6498300145701797
aF0.6487699468085106
aF0.6649787651094413
aF0.6593677971682582
aF0.6488651535380507
a.