(lp0
F0.9294990723562153
aF0.933456561922366
aF0.926497838171711
aF0.9288702928870293
aF0.925
aF0.9432799013563502
aF0.9331756357185098
aF0.9462835727670205
aF0.9348086124401914
aF0.9274390243902438
aF0.9147479775980085
aF0.9259701492537314
aF0.9217980295566502
aF0.9334960341671751
aF0.9367164179104479
aF0.9324566646742379
aF0.9354838709677421
aF0.933291770573566
aF0.9334565619223659
aF0.9399759903961585
aF0.942805538832029
aF0.9328939484721389
aF0.9397163120567377
aF0.9454322501532803
aF0.9344870210135972
a.