(lp0
F0.5982742090124641
aF0.5902578796561604
aF0.6160975609756099
aF0.5919282511210762
aF0.5726086956521739
aF0.5605802047781571
aF0.5949757602468048
aF0.6199903428295509
aF0.6164179104477612
aF0.5714908456843941
aF0.6017484215638661
aF0.5986784140969162
aF0.6490683229813665
aF0.6236766121270453
aF0.6215704824976349
aF0.5554123711340205
aF0.5594980527909995
aF0.6182085168869309
aF0.615819209039548
aF0.5907335907335908
aF0.5986425339366515
aF0.5791610284167794
aF0.5966542750929368
aF0.5660377358490567
aF0.5915684496826837
a.