(dp0
S'untuned100_train'
p1
(lp2
cnumpy.core.multiarray
scalar
p3
(cnumpy
dtype
p4
(S'f8'
p5
I0
I1
tp6
Rp7
(I3
S'<'
p8
NNNI-1
I-1
I0
tp9
bS'\x1c\xc7q\x1c\xc7q\xdc?'
p10
tp11
Rp12
asS'tuned_test'
p13
(lp14
g3
(g7
S'\x1c\xc7q\x1c\xc7q\xec?'
p15
tp16
Rp17
asS'tuned_train'
p18
(lp19
g3
(g7
S'9\x8e\xe38\x8e\xe3\xe8?'
p20
tp21
Rp22
asS'untuned100_test'
p23
(lp24
g3
(g7
S'UUUUUU\xd5?'
p25
tp26
Rp27
asS'tuned_dec'
p28
(lp29
I100
aF0.9204147774214047
aF0.6625515994899036
asS'untuned200_train'
p30
(lp31
g3
(g7
S'\x1c\xc7q\x1c\xc7q\xdc?'
p32
tp33
Rp34
asS'untuned200_test'
p35
(lp36
g3
(g7
S'UUUUUU\xd5?'
p37
tp38
Rp39
as.